target datalayout = "e-m:e-p270:32:32-p271:32:32-p272:64:64-i64:64-i128:128-f80:128-n8:16:32:64-S128"
target triple = "x86_64-unknown-linux-gnu"

%"class.folly::Optional.40" = type { %"struct.folly::Optional<unsigned long>::StorageTriviallyDestructible" }
%"struct.folly::Optional<unsigned long>::StorageTriviallyDestructible" = type <{ %union.anon.41, i8, [7 x i8] }>
%union.anon.41 = type { i64 }
%"struct.folly::unsafe_default_initialized_cv" = type { i8 }
%"class.std::chrono::time_point" = type { %"class.std::chrono::duration" }
%"class.std::chrono::duration" = type { i64 }
%"class.std::__shared_count" = type { ptr }
%"class.folly::HHWheelTimerBase<std::chrono::duration<long, std::ratio<1, 1000>>>::Callback" = type { ptr, %"class.boost::intrusive::list_base_hook", ptr, %"class.std::chrono::time_point", i32, %"class.std::shared_ptr" }
%"class.boost::intrusive::list_base_hook" = type { %"class.boost::intrusive::generic_hook" }
%"class.boost::intrusive::generic_hook" = type { %"struct.boost::intrusive::node_holder" }
%"struct.boost::intrusive::node_holder" = type { %"struct.boost::intrusive::list_node" }
%"struct.boost::intrusive::list_node" = type { ptr, ptr }
%"class.std::shared_ptr" = type { %"class.std::__shared_ptr" }
%"class.std::__shared_ptr" = type { ptr, %"class.std::__shared_count" }
%"class.std::chrono::duration.55" = type { i64 }
%"class.proxygen::HTTPSession::PingProber" = type <{ %"class.folly::HHWheelTimerBase<std::chrono::duration<long, std::ratio<1, 1000>>>::Callback", ptr, %"class.std::chrono::duration.55", %"class.std::chrono::duration.55", %"class.folly::Optional.40", i8, [7 x i8] }>

@_ZN5folly26unsafe_default_initializedE = linkonce_odr constant %"struct.folly::unsafe_default_initialized_cv" undef, comdat, align 1

; Function Attrs: noreturn nounwind uwtable
define linkonce_odr hidden void @__clang_call_terminate(ptr noundef %0) #9 comdat {
  %2 = call ptr @__cxa_begin_catch(ptr %0) #3
  call void @_ZSt9terminatev() #30
  unreachable
}

; Function Attrs: mustprogress nounwind uwtable
define linkonce_odr void @_ZN5folly8OptionalImE28StorageTriviallyDestructibleC2Ev(ptr noundef nonnull align 8 dereferenceable(9) %this) unnamed_addr #5 comdat align 2 {
entry:
  %this.addr.i = alloca ptr, align 8
  %this.addr = alloca ptr, align 8
  store ptr %this, ptr %this.addr, align 8
  %this1 = load ptr, ptr %this.addr, align 8
  %0 = getelementptr inbounds %"struct.folly::Optional<unsigned long>::StorageTriviallyDestructible", ptr %this1, i32 0, i32 0
  store ptr @_ZN5folly26unsafe_default_initializedE, ptr %this.addr.i, align 8
  store i8 0, ptr %0, align 8
  %hasValue = getelementptr inbounds %"struct.folly::Optional<unsigned long>::StorageTriviallyDestructible", ptr %this1, i32 0, i32 1
  store i8 0, ptr %hasValue, align 8
  ret void
}

; Function Attrs: mustprogress uwtable
define void @_ZN8proxygen11HTTPSession10PingProber11startProbesEv(ptr noundef nonnull align 8 dereferenceable(105) %this) #4 align 2 {
entry:
  %this.addr = alloca ptr, align 8
  store ptr %this, ptr %this.addr, align 8
  %this1 = load ptr, ptr %this.addr, align 8
  call void @_ZN8proxygen11HTTPSession10PingProber14refreshTimeoutEb(ptr noundef nonnull align 8 dereferenceable(105) %this1, i1 noundef zeroext false)
  ret void
}

; Function Attrs: mustprogress nounwind uwtable
define linkonce_odr void @_ZN5folly8OptionalImEC2Ev(ptr noundef nonnull align 8 dereferenceable(16) %this) unnamed_addr #5 comdat align 2 personality ptr @__gxx_personality_v0 {
entry:
  %this.addr = alloca ptr, align 8
  store ptr %this, ptr %this.addr, align 8
  %this1 = load ptr, ptr %this.addr, align 8
  %storage_ = getelementptr inbounds %"class.folly::Optional.40", ptr %this1, i32 0, i32 0
  invoke void @_ZN5folly8OptionalImE28StorageTriviallyDestructibleC2Ev(ptr noundef nonnull align 8 dereferenceable(9) %storage_)
          to label %invoke.cont unwind label %terminate.lpad

invoke.cont:                                      ; preds = %entry
  ret void

terminate.lpad:                                   ; preds = %entry
  %0 = landingpad { ptr, i32 }
          catch ptr null
  %1 = extractvalue { ptr, i32 } %0, 0
  call void @__clang_call_terminate(ptr %1) #30
  unreachable
}

; Function Attrs: mustprogress uwtable
define void @_ZN8proxygen11HTTPSession10PingProberC2ERS0_NSt6chrono8durationIlSt5ratioILl1ELl1EEEES7_bb(ptr noundef nonnull align 8 dereferenceable(105) %this, ptr noundef nonnull align 8 dereferenceable(2504) %session, i64 %interval.coerce, i64 %timeout.coerce, i1 noundef zeroext %extendIntervalOnIngress, i1 noundef zeroext %immediate) unnamed_addr #4 align 2 personality ptr @__gxx_personality_v0 {
entry:
  %interval = alloca %"class.std::chrono::duration.55", align 8
  %timeout = alloca %"class.std::chrono::duration.55", align 8
  %this.addr = alloca ptr, align 8
  %session.addr = alloca ptr, align 8
  %extendIntervalOnIngress.addr = alloca i8, align 1
  %immediate.addr = alloca i8, align 1
  %exn.slot = alloca ptr, align 8
  %ehselector.slot = alloca i32, align 4
  %coerce.dive = getelementptr inbounds %"class.std::chrono::duration.55", ptr %interval, i32 0, i32 0
  store i64 %interval.coerce, ptr %coerce.dive, align 8
  %coerce.dive1 = getelementptr inbounds %"class.std::chrono::duration.55", ptr %timeout, i32 0, i32 0
  store i64 %timeout.coerce, ptr %coerce.dive1, align 8
  store ptr %this, ptr %this.addr, align 8
  store ptr %session, ptr %session.addr, align 8
  %frombool = zext i1 %extendIntervalOnIngress to i8
  store i8 %frombool, ptr %extendIntervalOnIngress.addr, align 1
  %frombool2 = zext i1 %immediate to i8
  store i8 %frombool2, ptr %immediate.addr, align 1
  %this3 = load ptr, ptr %this.addr, align 8
  call void @_ZN5folly16HHWheelTimerBaseINSt6chrono8durationIlSt5ratioILl1ELl1000EEEEE8CallbackC2Ev(ptr noundef nonnull align 8 dereferenceable(64) %this3)
  store ptr getelementptr inbounds ({ [6 x ptr] }, ptr @_ZTVN8proxygen11HTTPSession10PingProberE, i32 0, i32 0, i32 2), ptr %this3, align 8
  %session_ = getelementptr inbounds %"class.proxygen::HTTPSession::PingProber", ptr %this3, i32 0, i32 1
  %0 = load ptr, ptr %session.addr, align 8
  store ptr %0, ptr %session_, align 8
  %interval_ = getelementptr inbounds %"class.proxygen::HTTPSession::PingProber", ptr %this3, i32 0, i32 2
  call void @llvm.memcpy.p0.p0.i64(ptr align 8 %interval_, ptr align 8 %interval, i64 8, i1 false)
  %timeout_ = getelementptr inbounds %"class.proxygen::HTTPSession::PingProber", ptr %this3, i32 0, i32 3
  call void @llvm.memcpy.p0.p0.i64(ptr align 8 %timeout_, ptr align 8 %timeout, i64 8, i1 false)
  %pingVal_ = getelementptr inbounds %"class.proxygen::HTTPSession::PingProber", ptr %this3, i32 0, i32 4
  call void @_ZN5folly8OptionalImEC2Ev(ptr noundef nonnull align 8 dereferenceable(16) %pingVal_) #3
  %extendIntervalOnIngress_ = getelementptr inbounds %"class.proxygen::HTTPSession::PingProber", ptr %this3, i32 0, i32 5
  %1 = load i8, ptr %extendIntervalOnIngress.addr, align 1
  %tobool = trunc i8 %1 to i1
  %frombool4 = zext i1 %tobool to i8
  store i8 %frombool4, ptr %extendIntervalOnIngress_, align 8
  %2 = load i8, ptr %immediate.addr, align 1
  %tobool5 = trunc i8 %2 to i1
  br i1 %tobool5, label %if.then, label %if.else

if.then:                                          ; preds = %entry
  %vtable = load ptr, ptr %this3, align 8
  %vfn = getelementptr inbounds ptr, ptr %vtable, i64 2
  %3 = load ptr, ptr %vfn, align 8
  call void %3(ptr noundef nonnull align 8 dereferenceable(105) %this3) #3
  br label %if.end11

if.else:                                          ; preds = %entry
  %session_6 = getelementptr inbounds %"class.proxygen::HTTPSession::PingProber", ptr %this3, i32 0, i32 1
  %4 = load ptr, ptr %session_6, align 8
  %vtable7 = load ptr, ptr %4, align 8
  %vfn8 = getelementptr inbounds ptr, ptr %vtable7, i64 25
  %5 = load ptr, ptr %vfn8, align 8
  %call = invoke noundef i32 %5(ptr noundef nonnull align 8 dereferenceable(2504) %4)
          to label %invoke.cont unwind label %lpad

invoke.cont:                                      ; preds = %if.else
  %cmp = icmp ugt i32 %call, 0
  br i1 %cmp, label %if.then9, label %if.end

if.then9:                                         ; preds = %invoke.cont
  invoke void @_ZN8proxygen11HTTPSession10PingProber11startProbesEv(ptr noundef nonnull align 8 dereferenceable(105) %this3)
          to label %invoke.cont10 unwind label %lpad

invoke.cont10:                                    ; preds = %if.then9
  br label %if.end

lpad:                                             ; preds = %if.then9, %if.else
  %6 = landingpad { ptr, i32 }
          cleanup
  %7 = extractvalue { ptr, i32 } %6, 0
  store ptr %7, ptr %exn.slot, align 8
  %8 = extractvalue { ptr, i32 } %6, 1
  store i32 %8, ptr %ehselector.slot, align 4
  call void @_ZN5folly16HHWheelTimerBaseINSt6chrono8durationIlSt5ratioILl1ELl1000EEEEE8CallbackD2Ev(ptr noundef nonnull align 8 dereferenceable(64) %this3) #3
  br label %eh.resume

if.end:                                           ; preds = %invoke.cont10, %invoke.cont
  br label %if.end11

if.end11:                                         ; preds = %if.end, %if.then
  ret void

eh.resume:                                        ; preds = %lpad
  %exn = load ptr, ptr %exn.slot, align 8
  %sel = load i32, ptr %ehselector.slot, align 4
  %lpad.val = insertvalue { ptr, i32 } poison, ptr %exn, 0
  %lpad.val12 = insertvalue { ptr, i32 } %lpad.val, i32 %sel, 1
  resume { ptr, i32 } %lpad.val12
}