; Function Attrs: mustprogress uwtable
define void @_ZN8proxygen11HTTPSession10PingProberC2ERS0_NSt6chrono8durationIlSt5ratioILl1ELl1EEEES7_bb(ptr noundef nonnull align 8 dereferenceable(105) %this, ptr noundef nonnull align 8 dereferenceable(2504) %session, i64 %interval.coerce, i64 %timeout.coerce, i1 noundef zeroext %extendIntervalOnIngress, i1 noundef zeroext %immediate) unnamed_addr #3 align 2 personality ptr @__gxx_personality_v0 {
entry:
  %frombool = zext i1 %extendIntervalOnIngress to i8
  tail call void @_ZN5folly16HHWheelTimerBaseINSt6chrono8durationIlSt5ratioILl1ELl1000EEEEE8CallbackC2Ev(ptr noundef nonnull align 8 dereferenceable(64) %this)
  store ptr getelementptr inbounds ({ [6 x ptr] }, ptr @_ZTVN8proxygen11HTTPSession10PingProberE, i64 0, i32 0, i64 2), ptr %this, align 8
  %session_ = getelementptr inbounds i8, ptr %this, i64 64
  store ptr %session, ptr %session_, align 8
  %interval_ = getelementptr inbounds i8, ptr %this, i64 72
  store i64 %interval.coerce, ptr %interval_, align 8
  %timeout_ = getelementptr inbounds i8, ptr %this, i64 80
  store i64 %timeout.coerce, ptr %timeout_, align 8
  %pingVal_ = getelementptr inbounds i8, ptr %this, i64 88
  store i8 0, ptr %pingVal_, align 8
  %hasValue.i.i = getelementptr inbounds i8, ptr %this, i64 96
  store i8 0, ptr %hasValue.i.i, align 8
  %extendIntervalOnIngress_ = getelementptr inbounds i8, ptr %this, i64 104
  store i8 %frombool, ptr %extendIntervalOnIngress_, align 8
  br i1 %immediate, label %if.then, label %if.else

if.then:                                          ; preds = %entry
  tail call void @_ZN8proxygen11HTTPSession10PingProber14timeoutExpiredEv(ptr noundef nonnull align 8 dereferenceable(105) %this) #39
  br label %if.end11

if.else:                                          ; preds = %entry
  %vtable7 = load ptr, ptr %session, align 8
  %vfn8 = getelementptr inbounds i8, ptr %vtable7, i64 200
  %0 = load ptr, ptr %vfn8, align 8
  %call = invoke noundef i32 %0(ptr noundef nonnull align 8 dereferenceable(2504) %session)
          to label %invoke.cont unwind label %lpad

invoke.cont:                                      ; preds = %if.else
  %cmp.not = icmp eq i32 %call, 0
  br i1 %cmp.not, label %if.end11, label %if.then9

if.then9:                                         ; preds = %invoke.cont
  invoke void @_ZN8proxygen11HTTPSession10PingProber14refreshTimeoutEb(ptr noundef nonnull align 8 dereferenceable(105) %this, i1 noundef zeroext false)
          to label %if.end11 unwind label %lpad

lpad:                                             ; preds = %if.then9, %if.else
  %1 = landingpad { ptr, i32 }
          cleanup
  tail call void @_ZN5folly16HHWheelTimerBaseINSt6chrono8durationIlSt5ratioILl1ELl1000EEEEE8CallbackD2Ev(ptr noundef nonnull align 8 dereferenceable(64) %this) #39
  resume { ptr, i32 } %1

if.end11:                                         ; preds = %if.then9, %invoke.cont, %if.then
  ret void
}